; Function Attrs: mustprogress uwtable
define noundef i32 @_ZNK6casadi9Assertion10sp_forwardEPPKyPPyPxS4_(ptr noundef nonnull align 8 dereferenceable(96) %0, ptr nocapture noundef readonly %1, ptr nocapture noundef readonly %2, ptr nocapture readnone %3, ptr nocapture readnone %4) unnamed_addr #3 align 2 {
  %6 = load ptr, ptr %1, align 8
  %7 = load ptr, ptr %2, align 8
  %.not = icmp eq ptr %6, %7
  br i1 %.not, label %_ZSt4copyIPKyPyET0_T_S4_S3_.exit, label %8

8:                                                ; preds = %5
  %9 = load ptr, ptr %0, align 8
  %10 = getelementptr inbounds i8, ptr %9, i64 352
  %11 = load ptr, ptr %10, align 8
  %12 = tail call noundef nonnull align 8 dereferenceable(8) ptr %11(ptr noundef nonnull align 8 dereferenceable(64) %0, i64 noundef 0)
  %13 = tail call noundef i64 @_ZNK6casadi8Sparsity3nnzEv(ptr noundef nonnull align 8 dereferenceable(8) %12)
  %.not.i.i.i.i.i = icmp eq i64 %13, 0
  br i1 %.not.i.i.i.i.i, label %_ZSt4copyIPKyPyET0_T_S4_S3_.exit, label %14

14:                                               ; preds = %8
  %.idx = shl nsw i64 %13, 3
  %15 = load ptr, ptr %2, align 8
  tail call void @llvm.memmove.p0.p0.i64(ptr align 8 %15, ptr align 8 %6, i64 %.idx, i1 false)
  br label %_ZSt4copyIPKyPyET0_T_S4_S3_.exit

_ZSt4copyIPKyPyET0_T_S4_S3_.exit:                 ; preds = %14, %8, %5
  ret i32 0
}